; Function Attrs: mustprogress nounwind uwtable
define void @_ZN7mitsuba14StreamAppenderD2Ev(ptr noundef nonnull align 8 dereferenceable(50) %0) unnamed_addr #6 align 2 personality ptr @__gxx_personality_v0 {
  store ptr getelementptr inbounds inrange(-16, 88) ({ [13 x ptr] }, ptr @_ZTVN7mitsuba14StreamAppenderE, i64 0, i32 0, i64 2), ptr %0, align 8
  %2 = getelementptr inbounds i8, ptr %0, i64 48
  %3 = load i8, ptr %2, align 8
  %4 = and i8 %3, 1
  %.not = icmp eq i8 %4, 0
  br i1 %.not, label %26, label %5

5:                                                ; preds = %1
  %6 = getelementptr inbounds i8, ptr %0, i64 16
  %7 = load ptr, ptr %6, align 8, !nonnull !4, !noundef !4
  %8 = getelementptr inbounds i8, ptr %7, i64 -16
  %9 = getelementptr inbounds i8, ptr %7, i64 8
  %10 = invoke noundef ptr @_ZNSt3__113basic_filebufIcNS_11char_traitsIcEEE5closeEv(ptr noundef nonnull align 8 dereferenceable(163) %9)
          to label %.noexc unwind label %28

.noexc:                                           ; preds = %5
  %11 = icmp eq ptr %10, null
  br i1 %11, label %12, label %_ZNSt3__113basic_fstreamIcNS_11char_traitsIcEEE5closeEv.exit

12:                                               ; preds = %.noexc
  %13 = load ptr, ptr %8, align 8
  %14 = getelementptr i8, ptr %13, i64 -24
  %15 = load i64, ptr %14, align 8
  %16 = getelementptr inbounds i8, ptr %8, i64 %15
  %17 = getelementptr inbounds i8, ptr %16, i64 32
  %18 = load i32, ptr %17, align 8
  %19 = or i32 %18, 4
  invoke void @_ZNSt3__18ios_base5clearEj(ptr noundef nonnull align 8 dereferenceable(136) %16, i32 noundef %19)
          to label %_ZNSt3__113basic_fstreamIcNS_11char_traitsIcEEE5closeEv.exit unwind label %28

_ZNSt3__113basic_fstreamIcNS_11char_traitsIcEEE5closeEv.exit: ; preds = %.noexc, %12
  %20 = load ptr, ptr %6, align 8
  %21 = icmp eq ptr %20, null
  br i1 %21, label %26, label %22

22:                                               ; preds = %_ZNSt3__113basic_fstreamIcNS_11char_traitsIcEEE5closeEv.exit
  %23 = load ptr, ptr %20, align 8
  %24 = getelementptr inbounds i8, ptr %23, i64 8
  %25 = load ptr, ptr %24, align 8
  tail call void %25(ptr noundef nonnull align 8 dereferenceable(8) %20) #16
  br label %26

26:                                               ; preds = %_ZNSt3__113basic_fstreamIcNS_11char_traitsIcEEE5closeEv.exit, %22, %1
  %27 = getelementptr inbounds i8, ptr %0, i64 24
  tail call void @_ZNSt3__112basic_stringIcNS_11char_traitsIcEENS_9allocatorIcEEED1Ev(ptr noundef nonnull align 8 dereferenceable(24) %27) #16
  tail call void @_ZN7mitsuba6ObjectD2Ev(ptr noundef nonnull align 8 dereferenceable(12) %0) #16
  ret void

28:                                               ; preds = %12, %5
  %29 = landingpad { ptr, i32 }
          catch ptr null
  %30 = extractvalue { ptr, i32 } %29, 0
  tail call void @__clang_call_terminate(ptr %30) #18
  unreachable
}